target datalayout = "e-m:e-p270:32:32-p271:32:32-p272:64:64-i64:64-i128:128-f80:128-n8:16:32:64-S128"
target triple = "x86_64-pc-linux-gnu"

%struct.thpool_ = type { ptr, i32, i32, %union.pthread_mutex_t, %union.pthread_cond_t, %struct.jobqueue }
%union.pthread_mutex_t = type { %struct.__pthread_mutex_s }
%struct.__pthread_mutex_s = type { i32, i32, i32, i32, i32, i16, i16, %struct.__pthread_internal_list }
%struct.__pthread_internal_list = type { ptr, ptr }
%union.pthread_cond_t = type { %struct.__pthread_cond_s }
%struct.__pthread_cond_s = type { %union.__atomic_wide_counter, %union.__atomic_wide_counter, [2 x i32], [2 x i32], i32, i32, [2 x i32] }
%union.__atomic_wide_counter = type { i64 }
%struct.jobqueue = type { %union.pthread_mutex_t, ptr, ptr, ptr, i32 }
%struct.thread = type { i32, i64, ptr }
%struct.bsem = type { %union.pthread_mutex_t, %union.pthread_cond_t, i32 }

@threads_on_hold = internal global i32 0, align 4
@threads_keepalive = internal global i32 0, align 4
@stderr = external global ptr, align 8
@.str = private unnamed_addr constant [58 x i8] c"thpool_init(): Could not allocate memory for thread pool\0A\00", align 1
@.str.1 = private unnamed_addr constant [56 x i8] c"thpool_init(): Could not allocate memory for job queue\0A\00", align 1
@.str.2 = private unnamed_addr constant [54 x i8] c"thpool_init(): Could not allocate memory for threads\0A\00", align 1
@.str.4 = private unnamed_addr constant [53 x i8] c"thread_init(): Could not allocate memory for thread\0A\00", align 1
@.str.9 = private unnamed_addr constant [58 x i8] c"bsem_init(): Binary semaphore can take only values 1 or 0\00", align 1

; Function Attrs: nounwind uwtable
define internal void @bsem_reset(ptr noundef %0) #0 {
  %2 = alloca ptr, align 8
  store ptr %0, ptr %2, align 8
  %3 = load ptr, ptr %2, align 8
  call void @bsem_init(ptr noundef %3, i32 noundef 0)
  ret void
}

; Function Attrs: nounwind uwtable
define internal void @jobqueue_clear(ptr noundef %0) #0 {
  %2 = alloca ptr, align 8
  store ptr %0, ptr %2, align 8
  br label %3

3:                                                ; preds = %8, %1
  %4 = load ptr, ptr %2, align 8
  %5 = getelementptr inbounds %struct.jobqueue, ptr %4, i32 0, i32 4
  %6 = load i32, ptr %5, align 8
  %7 = icmp ne i32 %6, 0
  br i1 %7, label %8, label %11

8:                                                ; preds = %3
  %9 = load ptr, ptr %2, align 8
  %10 = call ptr @jobqueue_pull(ptr noundef %9)
  call void @free(ptr noundef %10) #8
  br label %3

11:                                               ; preds = %3
  %12 = load ptr, ptr %2, align 8
  %13 = getelementptr inbounds %struct.jobqueue, ptr %12, i32 0, i32 1
  store ptr null, ptr %13, align 8
  %14 = load ptr, ptr %2, align 8
  %15 = getelementptr inbounds %struct.jobqueue, ptr %14, i32 0, i32 2
  store ptr null, ptr %15, align 8
  %16 = load ptr, ptr %2, align 8
  %17 = getelementptr inbounds %struct.jobqueue, ptr %16, i32 0, i32 3
  %18 = load ptr, ptr %17, align 8
  call void @bsem_reset(ptr noundef %18)
  %19 = load ptr, ptr %2, align 8
  %20 = getelementptr inbounds %struct.jobqueue, ptr %19, i32 0, i32 4
  store i32 0, ptr %20, align 8
  ret void
}

; Function Attrs: nounwind uwtable
define internal void @bsem_init(ptr noundef %0, i32 noundef %1) #0 {
  %3 = alloca ptr, align 8
  %4 = alloca i32, align 4
  store ptr %0, ptr %3, align 8
  store i32 %1, ptr %4, align 4
  %5 = load i32, ptr %4, align 4
  %6 = icmp slt i32 %5, 0
  br i1 %6, label %10, label %7

7:                                                ; preds = %2
  %8 = load i32, ptr %4, align 4
  %9 = icmp sgt i32 %8, 1
  br i1 %9, label %10, label %13

10:                                               ; preds = %7, %2
  %11 = load ptr, ptr @stderr, align 8
  %12 = call i32 (ptr, ptr, ...) @fprintf(ptr noundef %11, ptr noundef @.str.9) #8
  call void @exit(i32 noundef 1) #10
  unreachable

13:                                               ; preds = %7
  %14 = load ptr, ptr %3, align 8
  %15 = getelementptr inbounds %struct.bsem, ptr %14, i32 0, i32 0
  %16 = call i32 @pthread_mutex_init(ptr noundef %15, ptr noundef null) #8
  %17 = load ptr, ptr %3, align 8
  %18 = getelementptr inbounds %struct.bsem, ptr %17, i32 0, i32 1
  %19 = call i32 @pthread_cond_init(ptr noundef %18, ptr noundef null) #8
  %20 = load i32, ptr %4, align 4
  %21 = load ptr, ptr %3, align 8
  %22 = getelementptr inbounds %struct.bsem, ptr %21, i32 0, i32 2
  store i32 %20, ptr %22, align 8
  ret void
}

; Function Attrs: nounwind uwtable
define internal i32 @thread_init(ptr noundef %0, ptr noundef %1, i32 noundef %2) #0 {
  %4 = alloca i32, align 4
  %5 = alloca ptr, align 8
  %6 = alloca ptr, align 8
  %7 = alloca i32, align 4
  store ptr %0, ptr %5, align 8
  store ptr %1, ptr %6, align 8
  store i32 %2, ptr %7, align 4
  %8 = call noalias ptr @malloc(i64 noundef 24) #7
  %9 = load ptr, ptr %6, align 8
  store ptr %8, ptr %9, align 8
  %10 = load ptr, ptr %6, align 8
  %11 = load ptr, ptr %10, align 8
  %12 = icmp eq ptr %11, null
  br i1 %12, label %13, label %16

13:                                               ; preds = %3
  %14 = load ptr, ptr @stderr, align 8
  %15 = call i32 (ptr, ptr, ...) @fprintf(ptr noundef %14, ptr noundef @.str.4) #8
  store i32 -1, ptr %4, align 4
  br label %36

16:                                               ; preds = %3
  %17 = load ptr, ptr %5, align 8
  %18 = load ptr, ptr %6, align 8
  %19 = load ptr, ptr %18, align 8
  %20 = getelementptr inbounds %struct.thread, ptr %19, i32 0, i32 2
  store ptr %17, ptr %20, align 8
  %21 = load i32, ptr %7, align 4
  %22 = load ptr, ptr %6, align 8
  %23 = load ptr, ptr %22, align 8
  %24 = getelementptr inbounds %struct.thread, ptr %23, i32 0, i32 0
  store i32 %21, ptr %24, align 8
  %25 = load ptr, ptr %6, align 8
  %26 = load ptr, ptr %25, align 8
  %27 = getelementptr inbounds %struct.thread, ptr %26, i32 0, i32 1
  %28 = load ptr, ptr %6, align 8
  %29 = load ptr, ptr %28, align 8
  %30 = call i32 @pthread_create(ptr noundef %27, ptr noundef null, ptr noundef @thread_do, ptr noundef %29) #8
  %31 = load ptr, ptr %6, align 8
  %32 = load ptr, ptr %31, align 8
  %33 = getelementptr inbounds %struct.thread, ptr %32, i32 0, i32 1
  %34 = load i64, ptr %33, align 8
  %35 = call i32 @pthread_detach(i64 noundef %34) #8
  store i32 0, ptr %4, align 4
  br label %36

36:                                               ; preds = %16, %13
  %37 = load i32, ptr %4, align 4
  ret i32 %37
}

; Function Attrs: nounwind uwtable
define internal void @jobqueue_destroy(ptr noundef %0) #0 {
  %2 = alloca ptr, align 8
  store ptr %0, ptr %2, align 8
  %3 = load ptr, ptr %2, align 8
  call void @jobqueue_clear(ptr noundef %3)
  %4 = load ptr, ptr %2, align 8
  %5 = getelementptr inbounds %struct.jobqueue, ptr %4, i32 0, i32 3
  %6 = load ptr, ptr %5, align 8
  call void @free(ptr noundef %6) #8
  ret void
}

; Function Attrs: nounwind uwtable
define internal i32 @jobqueue_init(ptr noundef %0) #0 {
  %2 = alloca i32, align 4
  %3 = alloca ptr, align 8
  store ptr %0, ptr %3, align 8
  %4 = load ptr, ptr %3, align 8
  %5 = getelementptr inbounds %struct.jobqueue, ptr %4, i32 0, i32 4
  store i32 0, ptr %5, align 8
  %6 = load ptr, ptr %3, align 8
  %7 = getelementptr inbounds %struct.jobqueue, ptr %6, i32 0, i32 1
  store ptr null, ptr %7, align 8
  %8 = load ptr, ptr %3, align 8
  %9 = getelementptr inbounds %struct.jobqueue, ptr %8, i32 0, i32 2
  store ptr null, ptr %9, align 8
  %10 = call noalias ptr @malloc(i64 noundef 96) #7
  %11 = load ptr, ptr %3, align 8
  %12 = getelementptr inbounds %struct.jobqueue, ptr %11, i32 0, i32 3
  store ptr %10, ptr %12, align 8
  %13 = load ptr, ptr %3, align 8
  %14 = getelementptr inbounds %struct.jobqueue, ptr %13, i32 0, i32 3
  %15 = load ptr, ptr %14, align 8
  %16 = icmp eq ptr %15, null
  br i1 %16, label %17, label %18

17:                                               ; preds = %1
  store i32 -1, ptr %2, align 4
  br label %25

18:                                               ; preds = %1
  %19 = load ptr, ptr %3, align 8
  %20 = getelementptr inbounds %struct.jobqueue, ptr %19, i32 0, i32 0
  %21 = call i32 @pthread_mutex_init(ptr noundef %20, ptr noundef null) #8
  %22 = load ptr, ptr %3, align 8
  %23 = getelementptr inbounds %struct.jobqueue, ptr %22, i32 0, i32 3
  %24 = load ptr, ptr %23, align 8
  call void @bsem_init(ptr noundef %24, i32 noundef 0)
  store i32 0, ptr %2, align 4
  br label %25

25:                                               ; preds = %18, %17
  %26 = load i32, ptr %2, align 4
  ret i32 %26
}

; Function Attrs: nounwind uwtable
define dso_local ptr @thpool_init(i32 noundef %0) #0 {
  %2 = alloca ptr, align 8
  %3 = alloca i32, align 4
  %4 = alloca ptr, align 8
  %5 = alloca i32, align 4
  store i32 %0, ptr %3, align 4
  store volatile i32 0, ptr @threads_on_hold, align 4
  store volatile i32 1, ptr @threads_keepalive, align 4
  %6 = load i32, ptr %3, align 4
  %7 = icmp slt i32 %6, 0
  br i1 %7, label %8, label %9

8:                                                ; preds = %1
  store i32 0, ptr %3, align 4
  br label %9

9:                                                ; preds = %8, %1
  %10 = call noalias ptr @malloc(i64 noundef 176) #7
  store ptr %10, ptr %4, align 8
  %11 = load ptr, ptr %4, align 8
  %12 = icmp eq ptr %11, null
  br i1 %12, label %13, label %16

13:                                               ; preds = %9
  %14 = load ptr, ptr @stderr, align 8
  %15 = call i32 (ptr, ptr, ...) @fprintf(ptr noundef %14, ptr noundef @.str) #8
  store ptr null, ptr %2, align 8
  br label %80

16:                                               ; preds = %9
  %17 = load ptr, ptr %4, align 8
  %18 = getelementptr inbounds %struct.thpool_, ptr %17, i32 0, i32 1
  store volatile i32 0, ptr %18, align 8
  %19 = load ptr, ptr %4, align 8
  %20 = getelementptr inbounds %struct.thpool_, ptr %19, i32 0, i32 2
  store volatile i32 0, ptr %20, align 4
  %21 = load ptr, ptr %4, align 8
  %22 = getelementptr inbounds %struct.thpool_, ptr %21, i32 0, i32 5
  %23 = call i32 @jobqueue_init(ptr noundef %22)
  %24 = icmp eq i32 %23, -1
  br i1 %24, label %25, label %29

25:                                               ; preds = %16
  %26 = load ptr, ptr @stderr, align 8
  %27 = call i32 (ptr, ptr, ...) @fprintf(ptr noundef %26, ptr noundef @.str.1) #8
  %28 = load ptr, ptr %4, align 8
  call void @free(ptr noundef %28) #8
  store ptr null, ptr %2, align 8
  br label %80

29:                                               ; preds = %16
  %30 = load i32, ptr %3, align 4
  %31 = sext i32 %30 to i64
  %32 = mul i64 %31, 8
  %33 = call noalias ptr @malloc(i64 noundef %32) #7
  %34 = load ptr, ptr %4, align 8
  %35 = getelementptr inbounds %struct.thpool_, ptr %34, i32 0, i32 0
  store ptr %33, ptr %35, align 8
  %36 = load ptr, ptr %4, align 8
  %37 = getelementptr inbounds %struct.thpool_, ptr %36, i32 0, i32 0
  %38 = load ptr, ptr %37, align 8
  %39 = icmp eq ptr %38, null
  br i1 %39, label %40, label %46

40:                                               ; preds = %29
  %41 = load ptr, ptr @stderr, align 8
  %42 = call i32 (ptr, ptr, ...) @fprintf(ptr noundef %41, ptr noundef @.str.2) #8
  %43 = load ptr, ptr %4, align 8
  %44 = getelementptr inbounds %struct.thpool_, ptr %43, i32 0, i32 5
  call void @jobqueue_destroy(ptr noundef %44)
  %45 = load ptr, ptr %4, align 8
  call void @free(ptr noundef %45) #8
  store ptr null, ptr %2, align 8
  br label %80

46:                                               ; preds = %29
  %47 = load ptr, ptr %4, align 8
  %48 = getelementptr inbounds %struct.thpool_, ptr %47, i32 0, i32 3
  %49 = call i32 @pthread_mutex_init(ptr noundef %48, ptr noundef null) #8
  %50 = load ptr, ptr %4, align 8
  %51 = getelementptr inbounds %struct.thpool_, ptr %50, i32 0, i32 4
  %52 = call i32 @pthread_cond_init(ptr noundef %51, ptr noundef null) #8
  store i32 0, ptr %5, align 4
  br label %53

53:                                               ; preds = %67, %46
  %54 = load i32, ptr %5, align 4
  %55 = load i32, ptr %3, align 4
  %56 = icmp slt i32 %54, %55
  br i1 %56, label %57, label %70

57:                                               ; preds = %53
  %58 = load ptr, ptr %4, align 8
  %59 = load ptr, ptr %4, align 8
  %60 = getelementptr inbounds %struct.thpool_, ptr %59, i32 0, i32 0
  %61 = load ptr, ptr %60, align 8
  %62 = load i32, ptr %5, align 4
  %63 = sext i32 %62 to i64
  %64 = getelementptr inbounds ptr, ptr %61, i64 %63
  %65 = load i32, ptr %5, align 4
  %66 = call i32 @thread_init(ptr noundef %58, ptr noundef %64, i32 noundef %65)
  br label %67

67:                                               ; preds = %57
  %68 = load i32, ptr %5, align 4
  %69 = add nsw i32 %68, 1
  store i32 %69, ptr %5, align 4
  br label %53

70:                                               ; preds = %53
  br label %71

71:                                               ; preds = %77, %70
  %72 = load ptr, ptr %4, align 8
  %73 = getelementptr inbounds %struct.thpool_, ptr %72, i32 0, i32 1
  %74 = load volatile i32, ptr %73, align 8
  %75 = load i32, ptr %3, align 4
  %76 = icmp ne i32 %74, %75
  br i1 %76, label %77, label %78

77:                                               ; preds = %71
  br label %71

78:                                               ; preds = %71
  %79 = load ptr, ptr %4, align 8
  store ptr %79, ptr %2, align 8
  br label %80

80:                                               ; preds = %78, %40, %25, %13
  %81 = load ptr, ptr %2, align 8
  ret ptr %81
}