; Function Attrs: nounwind uwtable
define dso_local noundef ptr @thpool_init(i32 noundef %0) local_unnamed_addr #0 {
  store volatile i32 0, ptr @threads_on_hold, align 4
  store volatile i32 1, ptr @threads_keepalive, align 4
  %spec.store.select = tail call i32 @llvm.smax.i32(i32 %0, i32 0)
  %2 = tail call noalias dereferenceable_or_null(176) ptr @malloc(i64 noundef 176) #12
  %3 = icmp eq ptr %2, null
  br i1 %3, label %4, label %7

4:                                                ; preds = %1
  %5 = load ptr, ptr @stderr, align 8
  %6 = tail call i64 @fwrite(ptr nonnull @.str, i64 57, i64 1, ptr %5) #13
  br label %.loopexit

7:                                                ; preds = %1
  %8 = getelementptr inbounds i8, ptr %2, i64 8
  store volatile i32 0, ptr %8, align 8
  %9 = getelementptr inbounds i8, ptr %2, i64 12
  store volatile i32 0, ptr %9, align 4
  %10 = getelementptr inbounds i8, ptr %2, i64 104
  %11 = getelementptr inbounds i8, ptr %2, i64 168
  store i32 0, ptr %11, align 8
  %12 = getelementptr inbounds i8, ptr %2, i64 144
  %13 = tail call noalias dereferenceable_or_null(96) ptr @malloc(i64 noundef 96) #12
  %14 = getelementptr inbounds i8, ptr %2, i64 160
  tail call void @llvm.memset.p0.i64(ptr noundef nonnull align 8 dereferenceable(16) %12, i8 0, i64 16, i1 false)
  store ptr %13, ptr %14, align 8
  %15 = icmp eq ptr %13, null
  br i1 %15, label %16, label %19

16:                                               ; preds = %7
  %17 = load ptr, ptr @stderr, align 8
  %18 = tail call i64 @fwrite(ptr nonnull @.str.1, i64 55, i64 1, ptr %17) #13
  tail call void @free(ptr noundef nonnull %2) #14
  br label %.loopexit

19:                                               ; preds = %7
  %20 = tail call i32 @pthread_mutex_init(ptr noundef nonnull %10, ptr noundef null) #14
  %21 = load ptr, ptr %14, align 8
  %22 = tail call i32 @pthread_mutex_init(ptr noundef %21, ptr noundef null) #14
  %23 = getelementptr inbounds i8, ptr %21, i64 40
  %24 = tail call i32 @pthread_cond_init(ptr noundef nonnull %23, ptr noundef null) #14
  %25 = getelementptr inbounds i8, ptr %21, i64 88
  store i32 0, ptr %25, align 8
  %26 = zext nneg i32 %spec.store.select to i64
  %27 = shl nuw nsw i64 %26, 3
  %28 = tail call noalias ptr @malloc(i64 noundef %27) #12
  store ptr %28, ptr %2, align 8
  %29 = icmp eq ptr %28, null
  br i1 %29, label %30, label %42

30:                                               ; preds = %19
  %31 = load ptr, ptr @stderr, align 8
  %32 = tail call i64 @fwrite(ptr nonnull @.str.2, i64 53, i64 1, ptr %31) #13
  %33 = load i32, ptr %11, align 8
  %.not6.i.i = icmp eq i32 %33, 0
  br i1 %.not6.i.i, label %jobqueue_destroy.exit, label %.lr.ph.i.i

.lr.ph.i.i:                                       ; preds = %30, %.lr.ph.i.i
  %34 = tail call fastcc ptr @jobqueue_pull(ptr noundef nonnull %10)
  tail call void @free(ptr noundef %34) #14
  %35 = load i32, ptr %11, align 8
  %.not.i.i = icmp eq i32 %35, 0
  br i1 %.not.i.i, label %jobqueue_destroy.exit, label %.lr.ph.i.i

jobqueue_destroy.exit:                            ; preds = %.lr.ph.i.i, %30
  tail call void @llvm.memset.p0.i64(ptr noundef nonnull align 8 dereferenceable(16) %12, i8 0, i64 16, i1 false)
  %36 = load ptr, ptr %14, align 8
  %37 = tail call i32 @pthread_mutex_init(ptr noundef %36, ptr noundef null) #14
  %38 = getelementptr inbounds i8, ptr %36, i64 40
  %39 = tail call i32 @pthread_cond_init(ptr noundef nonnull %38, ptr noundef null) #14
  %40 = getelementptr inbounds i8, ptr %36, i64 88
  store i32 0, ptr %40, align 8
  store i32 0, ptr %11, align 8
  %41 = load ptr, ptr %14, align 8
  tail call void @free(ptr noundef %41) #14
  tail call void @free(ptr noundef nonnull %2) #14
  br label %.loopexit

42:                                               ; preds = %19
  %43 = getelementptr inbounds i8, ptr %2, i64 16
  %44 = tail call i32 @pthread_mutex_init(ptr noundef nonnull %43, ptr noundef null) #14
  %45 = getelementptr inbounds i8, ptr %2, i64 56
  %46 = tail call i32 @pthread_cond_init(ptr noundef nonnull %45, ptr noundef null) #14
  %47 = icmp sgt i32 %0, 0
  br i1 %47, label %.lr.ph.preheader, label %.preheader.preheader

.lr.ph.preheader:                                 ; preds = %42
  %wide.trip.count = zext nneg i32 %0 to i64
  br label %.lr.ph

.lr.ph:                                           ; preds = %.lr.ph.preheader, %thread_init.exit
  %indvars.iv = phi i64 [ 0, %.lr.ph.preheader ], [ %indvars.iv.next, %thread_init.exit ]
  %48 = load ptr, ptr %2, align 8
  %49 = getelementptr inbounds ptr, ptr %48, i64 %indvars.iv
  %50 = tail call noalias dereferenceable_or_null(24) ptr @malloc(i64 noundef 24) #12
  store ptr %50, ptr %49, align 8
  %51 = icmp eq ptr %50, null
  br i1 %51, label %52, label %55

52:                                               ; preds = %.lr.ph
  %53 = load ptr, ptr @stderr, align 8
  %54 = tail call i64 @fwrite(ptr nonnull @.str.4, i64 52, i64 1, ptr %53) #13
  br label %thread_init.exit

55:                                               ; preds = %.lr.ph
  %56 = getelementptr inbounds i8, ptr %50, i64 16
  store ptr %2, ptr %56, align 8
  %57 = trunc nuw nsw i64 %indvars.iv to i32
  store i32 %57, ptr %50, align 8
  %58 = getelementptr inbounds i8, ptr %50, i64 8
  %59 = tail call i32 @pthread_create(ptr noundef nonnull %58, ptr noundef null, ptr noundef nonnull @thread_do, ptr noundef nonnull %50) #14
  %60 = load ptr, ptr %49, align 8
  %61 = getelementptr inbounds i8, ptr %60, i64 8
  %62 = load i64, ptr %61, align 8
  %63 = tail call i32 @pthread_detach(i64 noundef %62) #14
  br label %thread_init.exit

thread_init.exit:                                 ; preds = %52, %55
  %indvars.iv.next = add nuw nsw i64 %indvars.iv, 1
  %exitcond.not = icmp eq i64 %indvars.iv.next, %wide.trip.count
  br i1 %exitcond.not, label %.preheader.preheader, label %.lr.ph

.preheader.preheader:                             ; preds = %thread_init.exit, %42
  br label %.preheader

.preheader:                                       ; preds = %.preheader.preheader, %.preheader
  %64 = load volatile i32, ptr %8, align 8
  %.not = icmp eq i32 %64, %spec.store.select
  br i1 %.not, label %.loopexit, label %.preheader

.loopexit:                                        ; preds = %.preheader, %jobqueue_destroy.exit, %16, %4
  %.023 = phi ptr [ null, %4 ], [ null, %16 ], [ null, %jobqueue_destroy.exit ], [ %2, %.preheader ]
  ret ptr %.023
}